target datalayout = "e-m:e-p270:32:32-p271:32:32-p272:64:64-i64:64-i128:128-f80:128-n8:16:32:64-S128"
target triple = "x86_64-pc-linux-gnu"

%struct.QemuMutex = type { %union.pthread_mutex_t, i8 }
%union.pthread_mutex_t = type { %struct.__pthread_mutex_s }
%struct.__pthread_mutex_s = type { i32, i32, i32, i32, i32, i16, i16, %struct.__pthread_internal_list }
%struct.__pthread_internal_list = type { ptr, ptr }
%struct.JobTxn = type { i8, %struct.anon, i32 }
%struct.anon = type { ptr }
%struct.Job = type { ptr, ptr, ptr, i8, i8, ptr, ptr, %struct.ProgressMeter, ptr, i32, i32, %struct.QEMUTimer, i32, i8, i8, i8, i8, i8, i8, i32, ptr, %struct.NotifierList, %struct.NotifierList, %struct.NotifierList, %struct.NotifierList, %struct.NotifierList, %struct.anon.1, ptr, %struct.anon.2 }
%struct.ProgressMeter = type { i64, i64, %struct.QemuMutex }
%struct.QEMUTimer = type { i64, ptr, ptr, ptr, ptr, i32, i32 }
%struct.NotifierList = type { %struct.anon.0 }
%struct.anon.0 = type { ptr }
%struct.anon.1 = type { ptr, ptr }
%struct.anon.2 = type { ptr, ptr }

@.str = private unnamed_addr constant [14 x i8] c"../qemu/job.c\00", align 1
@.str.38 = private unnamed_addr constant [16 x i8] c"job && job->txn\00", align 1
@__PRETTY_FUNCTION__.job_do_finalize_locked = private unnamed_addr constant [35 x i8] c"void job_do_finalize_locked(Job *)\00", align 1

; Function Attrs: nounwind sspstrong uwtable
define dso_local void @job_ref_locked(ptr noundef %0) #0 {
  %2 = alloca ptr, align 8
  store ptr %0, ptr %2, align 8
  %3 = load ptr, ptr %2, align 8
  %4 = getelementptr inbounds nuw %struct.Job, ptr %3, i32 0, i32 9
  %5 = load i32, ptr %4, align 8
  %6 = add i32 %5, 1
  store i32 %6, ptr %4, align 8
  ret void
}

; Function Attrs: nounwind sspstrong uwtable
define internal i32 @job_txn_apply_locked(ptr noundef %0, ptr noundef %1) #0 {
  %3 = alloca ptr, align 8
  %4 = alloca ptr, align 8
  %5 = alloca ptr, align 8
  %6 = alloca ptr, align 8
  %7 = alloca ptr, align 8
  %8 = alloca i32, align 4
  store ptr %0, ptr %3, align 8
  store ptr %1, ptr %4, align 8
  call void @llvm.lifetime.start.p0(i64 8, ptr %5) #16
  store ptr null, ptr %5, align 8, !annotation !5
  call void @llvm.lifetime.start.p0(i64 8, ptr %6) #16
  store ptr null, ptr %6, align 8, !annotation !5
  call void @llvm.lifetime.start.p0(i64 8, ptr %7) #16
  %9 = load ptr, ptr %3, align 8
  %10 = getelementptr inbounds nuw %struct.Job, ptr %9, i32 0, i32 27
  %11 = load ptr, ptr %10, align 8
  store ptr %11, ptr %7, align 8
  call void @llvm.lifetime.start.p0(i64 4, ptr %8) #16
  store i32 0, ptr %8, align 4
  %12 = load ptr, ptr %3, align 8
  call void @job_ref_locked(ptr noundef %12)
  %13 = load ptr, ptr %7, align 8
  %14 = getelementptr inbounds nuw %struct.JobTxn, ptr %13, i32 0, i32 1
  %15 = getelementptr inbounds nuw %struct.anon, ptr %14, i32 0, i32 0
  %16 = load ptr, ptr %15, align 8
  store ptr %16, ptr %5, align 8
  br label %17

17:                                               ; preds = %35, %2
  %18 = load ptr, ptr %5, align 8
  %19 = icmp ne ptr %18, null
  br i1 %19, label %20, label %25

20:                                               ; preds = %17
  %21 = load ptr, ptr %5, align 8
  %22 = getelementptr inbounds nuw %struct.Job, ptr %21, i32 0, i32 28
  %23 = getelementptr inbounds nuw %struct.anon.2, ptr %22, i32 0, i32 0
  %24 = load ptr, ptr %23, align 8
  store ptr %24, ptr %6, align 8
  br label %25

25:                                               ; preds = %20, %17
  %26 = phi i1 [ false, %17 ], [ true, %20 ]
  br i1 %26, label %27, label %37

27:                                               ; preds = %25
  %28 = load ptr, ptr %4, align 8
  %29 = load ptr, ptr %5, align 8
  %30 = call i32 %28(ptr noundef %29)
  store i32 %30, ptr %8, align 4
  %31 = load i32, ptr %8, align 4
  %32 = icmp ne i32 %31, 0
  br i1 %32, label %33, label %34

33:                                               ; preds = %27
  br label %37

34:                                               ; preds = %27
  br label %35

35:                                               ; preds = %34
  %36 = load ptr, ptr %6, align 8
  store ptr %36, ptr %5, align 8
  br label %17, !llvm.loop !20

37:                                               ; preds = %33, %25
  %38 = load ptr, ptr %3, align 8
  call void @job_unref_locked(ptr noundef %38)
  %39 = load i32, ptr %8, align 4
  call void @llvm.lifetime.end.p0(i64 4, ptr %8) #16
  call void @llvm.lifetime.end.p0(i64 8, ptr %7) #16
  call void @llvm.lifetime.end.p0(i64 8, ptr %6) #16
  call void @llvm.lifetime.end.p0(i64 8, ptr %5) #16
  ret i32 %39
}

; Function Attrs: nounwind sspstrong uwtable
define internal void @job_do_finalize_locked(ptr noundef %0) #0 {
  %2 = alloca ptr, align 8
  %3 = alloca i32, align 4
  store ptr %0, ptr %2, align 8
  call void @llvm.lifetime.start.p0(i64 4, ptr %3) #16
  store i32 0, ptr %3, align 4, !annotation !5
  %4 = load ptr, ptr %2, align 8
  %5 = icmp ne ptr %4, null
  br i1 %5, label %6, label %12

6:                                                ; preds = %1
  %7 = load ptr, ptr %2, align 8
  %8 = getelementptr inbounds nuw %struct.Job, ptr %7, i32 0, i32 27
  %9 = load ptr, ptr %8, align 8
  %10 = icmp ne ptr %9, null
  br i1 %10, label %11, label %12

11:                                               ; preds = %6
  br label %13

12:                                               ; preds = %6, %1
  call void @__assert_fail(ptr noundef @.str.38, ptr noundef @.str, i32 noundef 993, ptr noundef @__PRETTY_FUNCTION__.job_do_finalize_locked) #20
  unreachable

13:                                               ; preds = %11
  %14 = load ptr, ptr %2, align 8
  %15 = call i32 @job_txn_apply_locked(ptr noundef %14, ptr noundef @job_prepare_locked)
  store i32 %15, ptr %3, align 4
  %16 = load i32, ptr %3, align 4
  %17 = icmp ne i32 %16, 0
  br i1 %17, label %18, label %20

18:                                               ; preds = %13
  %19 = load ptr, ptr %2, align 8
  call void @job_completed_txn_abort_locked(ptr noundef %19)
  br label %23

20:                                               ; preds = %13
  %21 = load ptr, ptr %2, align 8
  %22 = call i32 @job_txn_apply_locked(ptr noundef %21, ptr noundef @job_finalize_single_locked)
  br label %23

23:                                               ; preds = %20, %18
  call void @llvm.lifetime.end.p0(i64 4, ptr %3) #16
  ret void
}