; Function Attrs: nounwind sspstrong uwtable
define internal fastcc void @job_do_finalize_locked(ptr noundef nonnull %0) unnamed_addr #0 {
  %2 = getelementptr inbounds nuw i8, ptr %0, i64 256
  %3 = load ptr, ptr %2, align 8
  %.not = icmp eq ptr %3, null
  br i1 %.not, label %4, label %5

4:                                                ; preds = %1
  tail call void @__assert_fail(ptr noundef nonnull @.str.38, ptr noundef nonnull @.str, i32 noundef 993, ptr noundef nonnull @__PRETTY_FUNCTION__.job_do_finalize_locked) #17
  unreachable

5:                                                ; preds = %1
  %6 = getelementptr inbounds nuw i8, ptr %0, i64 120
  %7 = load i32, ptr %6, align 8
  %8 = add i32 %7, 1
  store i32 %8, ptr %6, align 8
  %9 = getelementptr inbounds nuw i8, ptr %3, i64 8
  %10 = load ptr, ptr %9, align 8
  %.not.i15 = icmp eq ptr %10, null
  br i1 %.not.i15, label %._crit_edge, label %.lr.ph

.lr.ph:                                           ; preds = %5, %.backedge
  %.010.i16 = phi ptr [ %12, %.backedge ], [ %10, %5 ]
  %11 = getelementptr inbounds nuw i8, ptr %.010.i16, i64 264
  %12 = load ptr, ptr %11, align 8
  %13 = tail call zeroext i1 @qemu_in_main_thread() #15
  br i1 %13, label %15, label %14

14:                                               ; preds = %.lr.ph
  tail call void @__assert_fail(ptr noundef nonnull @.str.6, ptr noundef nonnull @.str, i32 noundef 970, ptr noundef nonnull @__PRETTY_FUNCTION__.job_prepare_locked) #17
  unreachable

15:                                               ; preds = %.lr.ph
  %16 = getelementptr inbounds nuw i8, ptr %.010.i16, i64 188
  %17 = load i32, ptr %16, align 4
  %18 = icmp eq i32 %17, 0
  br i1 %18, label %19, label %job_prepare_locked.exit.thread

19:                                               ; preds = %15
  %20 = getelementptr inbounds nuw i8, ptr %.010.i16, i64 8
  %21 = load ptr, ptr %20, align 8
  %22 = getelementptr inbounds nuw i8, ptr %21, i64 56
  %23 = load ptr, ptr %22, align 8
  %.not.i11 = icmp eq ptr %23, null
  br i1 %.not.i11, label %.backedge, label %24

24:                                               ; preds = %19
  tail call void @qemu_mutex_unlock_impl(ptr noundef nonnull @job_mutex, ptr noundef nonnull @.str, i32 noundef 106) #15
  %25 = load ptr, ptr %20, align 8
  %26 = getelementptr inbounds nuw i8, ptr %25, i64 56
  %27 = load ptr, ptr %26, align 8
  %28 = tail call i32 %27(ptr noundef nonnull %.010.i16) #15
  %29 = load atomic i64, ptr @qemu_mutex_lock_func monotonic, align 8
  %30 = inttoptr i64 %29 to ptr
  tail call void %30(ptr noundef nonnull @job_mutex, ptr noundef nonnull @.str, i32 noundef 101) #15
  store i32 %28, ptr %16, align 4
  %.not.i.i = icmp eq i32 %28, 0
  br i1 %.not.i.i, label %31, label %.thread.i.i

31:                                               ; preds = %24
  %32 = getelementptr inbounds nuw i8, ptr %.010.i16, i64 183
  %33 = load i8, ptr %32, align 1, !range !4, !noundef !5
  %34 = trunc nuw i8 %33 to i1
  %.phi.trans.insert.i.i.i = getelementptr inbounds nuw i8, ptr %.010.i16, i64 184
  %.pre.i.i.i = load i8, ptr %.phi.trans.insert.i.i.i, align 8, !range !4
  %.pre3.i.i.i = trunc nuw i8 %.pre.i.i.i to i1
  %.pre3.not.i.i.i = xor i1 %.pre3.i.i.i, true
  %brmerge.i.i.i = select i1 %34, i1 true, i1 %.pre3.not.i.i.i
  br i1 %brmerge.i.i.i, label %job_is_cancelled_locked.exit.i.i, label %35

35:                                               ; preds = %31
  tail call void @__assert_fail(ptr noundef nonnull @.str.5, ptr noundef nonnull @.str, i32 noundef 250, ptr noundef nonnull @__PRETTY_FUNCTION__.job_is_cancelled_locked) #17
  unreachable

job_is_cancelled_locked.exit.i.i:                 ; preds = %31
  %.pre3.mux.i.i.i = select i1 %34, i1 %.pre3.i.i.i, i1 false
  br i1 %.pre3.mux.i.i.i, label %36, label %.backedge

36:                                               ; preds = %job_is_cancelled_locked.exit.i.i
  store i32 -125, ptr %16, align 4
  br label %.thread.i.i

.thread.i.i:                                      ; preds = %36, %24
  %37 = phi i32 [ %28, %24 ], [ -125, %36 ]
  %38 = getelementptr inbounds nuw i8, ptr %.010.i16, i64 192
  %39 = load ptr, ptr %38, align 8
  %.not9.i.i = icmp eq ptr %39, null
  br i1 %.not9.i.i, label %40, label %job_prepare_locked.exit

40:                                               ; preds = %.thread.i.i
  %41 = sub i32 0, %37
  %42 = tail call ptr @strerror(i32 noundef %41) #15
  tail call void (ptr, ptr, i32, ptr, ptr, ...) @error_setg_internal(ptr noundef nonnull %38, ptr noundef nonnull @.str, i32 noundef 805, ptr noundef nonnull @__func__.job_update_rc_locked, ptr noundef nonnull @.str.39, ptr noundef %42) #15
  br label %job_prepare_locked.exit

job_prepare_locked.exit:                          ; preds = %40, %.thread.i.i
  tail call fastcc void @job_state_transition_locked(ptr noundef nonnull %.010.i16, i32 noundef 8)
  %.pre.i = load i32, ptr %16, align 4
  %43 = icmp eq i32 %.pre.i, 0
  br i1 %43, label %.backedge, label %job_prepare_locked.exit.thread

.backedge:                                        ; preds = %job_is_cancelled_locked.exit.i.i, %19, %job_prepare_locked.exit
  %.not.i = icmp eq ptr %12, null
  br i1 %.not.i, label %._crit_edge, label %.lr.ph, !llvm.loop !11

job_prepare_locked.exit.thread:                   ; preds = %15, %job_prepare_locked.exit
  tail call void @job_unref_locked(ptr noundef nonnull %0)
  tail call fastcc void @job_completed_txn_abort_locked(ptr noundef nonnull %0)
  br label %54

._crit_edge:                                      ; preds = %.backedge, %5
  tail call void @job_unref_locked(ptr noundef nonnull %0)
  %44 = load ptr, ptr %2, align 8
  %45 = load i32, ptr %6, align 8
  %46 = add i32 %45, 1
  store i32 %46, ptr %6, align 8
  %47 = getelementptr inbounds nuw i8, ptr %44, i64 8
  %48 = load ptr, ptr %47, align 8
  br label %49

49:                                               ; preds = %50, %._crit_edge
  %.010.i6 = phi ptr [ %48, %._crit_edge ], [ %52, %50 ]
  %.not.i7 = icmp eq ptr %.010.i6, null
  br i1 %.not.i7, label %job_txn_apply_locked.exit10, label %50

50:                                               ; preds = %49
  %51 = getelementptr inbounds nuw i8, ptr %.010.i6, i64 264
  %52 = load ptr, ptr %51, align 8
  %53 = tail call fastcc i32 @job_finalize_single_locked(ptr noundef nonnull %.010.i6) #15, !callees !12
  %.not13.i8 = icmp eq i32 %53, 0
  br i1 %.not13.i8, label %49, label %job_txn_apply_locked.exit10, !llvm.loop !11

job_txn_apply_locked.exit10:                      ; preds = %49, %50
  tail call void @job_unref_locked(ptr noundef nonnull %0)
  br label %54

54:                                               ; preds = %job_txn_apply_locked.exit10, %job_prepare_locked.exit.thread
  ret void
}